target datalayout = "e-m:e-p270:32:32-p271:32:32-p272:64:64-i64:64-i128:128-f80:128-n8:16:32:64-S128"
target triple = "x86_64-pc-linux-gnu"

@hf_amqp_method_connection_redirect_host = internal global i32 0, align 4
@hf_amqp_0_9_method_connection_redirect_known_hosts = internal global i32 0, align 4

; Function Attrs: null_pointer_is_valid sspstrong uwtable
define internal i32 @dissect_amqp_0_9_method_connection_redirect(ptr noundef %0, i32 noundef %1, ptr noundef %2) #0 {
  %4 = alloca ptr, align 8
  %5 = alloca i32, align 4
  %6 = alloca ptr, align 8
  store ptr %0, ptr %4, align 8
  store i32 %1, ptr %5, align 4
  store ptr %2, ptr %6, align 8
  %7 = load ptr, ptr %6, align 8
  %8 = load i32, ptr @hf_amqp_method_connection_redirect_host, align 4
  %9 = load ptr, ptr %4, align 8
  %10 = load i32, ptr %5, align 4
  %11 = call ptr @proto_tree_add_item(ptr noundef %7, i32 noundef %8, ptr noundef %9, i32 noundef %10, i32 noundef 1, i32 noundef 0)
  %12 = load ptr, ptr %4, align 8
  %13 = load i32, ptr %5, align 4
  %14 = call zeroext i8 @tvb_get_uint8(ptr noundef %12, i32 noundef %13)
  %15 = zext i8 %14 to i32
  %16 = add i32 1, %15
  %17 = load i32, ptr %5, align 4
  %18 = add i32 %17, %16
  store i32 %18, ptr %5, align 4
  %19 = load ptr, ptr %6, align 8
  %20 = load i32, ptr @hf_amqp_0_9_method_connection_redirect_known_hosts, align 4
  %21 = load ptr, ptr %4, align 8
  %22 = load i32, ptr %5, align 4
  %23 = add i32 %22, 1
  %24 = load ptr, ptr %4, align 8
  %25 = load i32, ptr %5, align 4
  %26 = call zeroext i8 @tvb_get_uint8(ptr noundef %24, i32 noundef %25)
  %27 = zext i8 %26 to i32
  %28 = call ptr @proto_tree_add_item(ptr noundef %19, i32 noundef %20, ptr noundef %21, i32 noundef %23, i32 noundef %27, i32 noundef 0)
  %29 = load ptr, ptr %4, align 8
  %30 = load i32, ptr %5, align 4
  %31 = call zeroext i8 @tvb_get_uint8(ptr noundef %29, i32 noundef %30)
  %32 = zext i8 %31 to i32
  %33 = add i32 1, %32
  %34 = load i32, ptr %5, align 4
  %35 = add i32 %34, %33
  store i32 %35, ptr %5, align 4
  %36 = load i32, ptr %5, align 4
  ret i32 %36
}