; Function Attrs: null_pointer_is_valid sspstrong uwtable
define internal fastcc void @dissect_amqp_0_9_method_connection_redirect(ptr noundef %0, ptr noundef %1) unnamed_addr #0 {
  %3 = load i32, ptr @hf_amqp_method_connection_redirect_host, align 4
  %4 = tail call ptr @proto_tree_add_item(ptr noundef %1, i32 noundef %3, ptr noundef %0, i32 noundef 11, i32 noundef 1, i32 noundef 0)
  %5 = tail call zeroext i8 @tvb_get_uint8(ptr noundef %0, i32 noundef 11)
  %6 = zext i8 %5 to i32
  %7 = add nuw nsw i32 %6, 12
  %8 = load i32, ptr @hf_amqp_0_9_method_connection_redirect_known_hosts, align 4
  %9 = add nuw nsw i32 %6, 13
  %10 = tail call zeroext i8 @tvb_get_uint8(ptr noundef %0, i32 noundef %7)
  %11 = zext i8 %10 to i32
  %12 = tail call ptr @proto_tree_add_item(ptr noundef %1, i32 noundef %8, ptr noundef %0, i32 noundef %9, i32 noundef %11, i32 noundef 0)
  %13 = tail call zeroext i8 @tvb_get_uint8(ptr noundef %0, i32 noundef %7)
  ret void
}